Certificate:
    Data:
        Version: 3 (0x2)
        Serial Number: 1 (0x1)
        Signature Algorithm: sha256WithRSAEncryption
        Issuer: C = BG, O = eDocs Bulgaria EOOD, organizationIdentifier = NTRBG-202970828, OU = QTSP, CN = eDocs Root Qualified CA
        Validity
            Not Before: Sep 25 15:04:39 2024 GMT
            Not After : Sep 25 15:04:39 2044 GMT
        Subject: C = BG, O = eDocs Bulgaria EOOD, organizationIdentifier = NTRBG-202970828, OU = QTSP, CN = eDocs Root Qualified CA
        Subject Public Key Info:
            Public Key Algorithm: rsaEncryption
                Public-Key: (4096 bit)
                Modulus:
                    00:86:82:e5:ba:3d:e0:0a:73:db:1d:37:47:97:a9:
                    ae:23:d4:a7:af:a1:51:78:68:3b:93:75:a8:7d:c1:
                    b5:99:8d:d9:7b:e7:6e:c5:8f:36:78:31:9c:fe:fd:
                    d9:41:cf:31:ce:57:6a:18:63:73:94:5f:26:3a:fe:
                    8e:3b:f7:7f:35:ba:e3:29:4c:0b:22:73:5c:27:e1:
                    4f:cf:5d:1d:8a:4f:bb:bc:3e:fc:57:ac:38:ce:9a:
                    1d:5a:00:1b:9d:a6:42:f1:a1:78:2c:63:72:93:1e:
                    a1:d8:67:0d:ca:90:1c:f9:66:cf:82:8c:4d:cd:f0:
                    8a:12:d5:88:95:fa:70:ab:d0:2e:bb:c3:a5:bd:17:
                    24:9d:69:a1:90:10:01:68:1f:1c:ac:b3:99:5d:cd:
                    7b:05:d8:75:30:62:37:46:39:7e:a7:cf:74:67:f0:
                    4e:71:13:1f:c8:41:0a:7c:d1:7d:5c:4c:55:e5:a9:
                    69:88:79:ba:a7:69:17:66:6d:72:51:c6:92:5a:54:
                    02:85:03:9e:d6:97:08:c0:7c:6b:52:68:81:d9:2b:
                    73:33:67:0e:ee:12:3c:ae:41:ae:10:48:00:14:fa:
                    2d:d4:d1:13:03:17:2a:57:33:91:3d:69:0f:8a:0b:
                    3b:a7:9c:82:40:14:b8:c3:c5:50:04:e4:10:7a:51:
                    56:be:03:4e:df:af:00:86:f6:a4:77:7c:e9:fc:09:
                    9d:7c:d8:06:a2:3d:84:52:b7:42:ff:9f:57:cd:81:
                    33:98:33:b7:da:fa:80:72:de:d5:b9:f9:d4:19:ec:
                    e0:ae:c4:a4:e8:5b:e3:02:76:bb:cf:54:d7:ef:0f:
                    dc:63:e1:06:ba:c6:34:54:d0:3e:43:c1:85:ee:46:
                    f8:8a:ed:99:c7:f6:d3:86:97:4e:92:ff:1b:e4:a2:
                    fd:cb:e2:b3:45:a6:29:cc:13:bc:0d:ca:08:15:d7:
                    b7:10:9b:60:67:82:6c:97:1b:ee:4b:c5:67:1c:fe:
                    72:f8:6f:94:33:b9:7b:7e:35:1c:a1:25:83:06:b8:
                    e2:99:fd:0a:bc:1f:75:4f:7a:5c:25:41:4a:40:c0:
                    4d:ce:9a:3f:84:e5:ea:2b:07:35:a0:b5:33:3f:5f:
                    76:35:0d:e9:d0:23:d6:56:7b:eb:09:1a:41:4d:c7:
                    8a:e3:d0:10:58:20:0e:c2:7e:d7:8d:9b:5c:65:c4:
                    7d:f9:df:6f:17:24:2a:3f:9b:0d:80:68:60:a9:f7:
                    e1:93:db:bd:1f:01:aa:c8:05:64:9f:03:82:36:3d:
                    8b:72:ee:5f:a3:55:5e:06:e2:fa:bc:f6:d1:f1:b8:
                    87:1f:2a:9a:f5:31:64:34:52:12:72:bb:fa:3a:aa:
                    94:fe:bb
                Exponent: 65537 (0x10001)
        X509v3 extensions:
            X509v3 Subject Key Identifier: 
                01:00:5A:77:D4:AD:50:9D:1B:7B:8B:68:BA:04:9D:48:52:0F:2B:14
            X509v3 Basic Constraints: critical
                CA:TRUE
            X509v3 Key Usage: critical
                Certificate Sign, CRL Sign
    Signature Algorithm: sha256WithRSAEncryption
    Signature Value:
        17:4d:2b:36:34:e3:01:59:f2:3c:67:ae:d6:8b:6f:ff:de:74:
        15:00:dd:17:b6:21:df:27:d9:00:c0:e7:c4:ff:57:d4:7e:eb:
        44:44:e6:de:ec:79:46:5f:24:3c:7d:2a:5d:df:d4:71:b5:72:
        5f:db:5d:fe:e7:aa:1e:98:6c:0f:02:ef:1b:1e:10:08:00:96:
        8e:02:ac:ae:a2:07:f2:eb:75:9c:c1:85:e1:23:f1:d1:25:c5:
        9c:7d:b6:2c:0a:91:77:a9:15:4d:bf:50:ab:a5:9c:0f:2c:6e:
        2e:ca:d7:80:e3:77:ea:63:6e:78:5a:ab:08:f5:ab:b7:08:74:
        ab:8c:33:2e:bc:17:1e:dc:8a:70:1a:96:69:64:15:64:69:22:
        87:5b:99:c9:00:3e:20:9f:e4:a1:69:2d:2b:13:e6:57:76:63:
        c8:95:fc:f3:2c:0d:9a:68:b0:46:3d:4c:1c:97:ab:a0:60:24:
        3d:c6:36:0d:20:e4:33:66:69:7f:cf:e2:e3:36:49:ab:b6:d0:
        f7:ba:fd:45:28:6c:3c:2f:23:7a:60:6b:32:61:16:5b:02:6b:
        bd:4f:81:f1:71:0c:38:2a:b1:74:1e:2d:cf:e4:62:54:63:08:
        4b:fe:f3:82:b0:5c:72:77:7e:28:7f:e2:46:11:7d:05:db:23:
        90:00:07:11:a8:8b:aa:45:e4:b3:03:13:79:c0:d4:26:6f:d5:
        2c:f1:12:e4:e8:9d:09:26:1d:ae:a9:f1:9d:db:b4:35:97:0a:
        53:51:e6:80:0f:2c:ce:e3:fc:cd:98:ee:a4:a0:08:43:68:51:
        91:5e:54:8e:d9:c3:f8:ca:6f:26:cb:90:b6:43:6c:3f:c5:e2:
        de:77:42:7e:df:da:b8:31:06:b1:f7:df:46:01:7d:69:83:8c:
        45:86:c4:8f:db:7c:6d:2a:0e:9f:73:0b:a0:e0:ef:ad:42:bd:
        6a:c9:fe:c0:9b:82:51:20:40:49:a7:9d:35:4a:3a:70:4b:72:
        7e:74:97:b9:0e:e4:33:8e:f2:7f:31:4d:61:e2:80:aa:d7:5a:
        59:44:1b:39:8f:87:0e:cf:b4:db:d6:3f:b2:05:43:17:ea:1a:
        f3:9e:6b:95:bf:b1:54:bf:ee:99:34:ab:a4:7c:29:fb:88:75:
        a9:9b:ab:65:9a:54:89:ff:21:0d:82:7e:c0:34:74:f0:4c:92:
        67:a7:23:7b:50:83:b6:85:ac:f6:8c:a2:40:17:1e:7f:db:df:
        e3:13:5c:37:61:75:5b:4c:24:74:ac:8d:49:07:82:f4:6b:fe:
        69:2f:a4:a7:8b:4e:6b:c3:a1:a2:33:a1:30:c8:aa:73:c0:93:
        16:d8:ee:1a:7a:4c:58:2f
-----BEGIN CERTIFICATE-----
MIIFqTCCA5GgAwIBAgIBATANBgkqhkiG9w0BAQsFADB2MQswCQYDVQQGEwJCRzEc
MBoGA1UEChMTZURvY3MgQnVsZ2FyaWEgRU9PRDEYMBYGA1UEYRMPTlRSQkctMjAy
OTcwODI4MQ0wCwYDVQQLEwRRVFNQMSAwHgYDVQQDExdlRG9jcyBSb290IFF1YWxp
ZmllZCBDQTAeFw0yNDA5MjUxNTA0MzlaFw00NDA5MjUxNTA0MzlaMHYxCzAJBgNV
BAYTAkJHMRwwGgYDVQQKExNlRG9jcyBCdWxnYXJpYSBFT09EMRgwFgYDVQRhEw9O
VFJCRy0yMDI5NzA4MjgxDTALBgNVBAsTBFFUU1AxIDAeBgNVBAMTF2VEb2NzIFJv
b3QgUXVhbGlmaWVkIENBMIICIjANBgkqhkiG9w0BAQEFAAOCAg8AMIICCgKCAgEA
hoLluj3gCnPbHTdHl6muI9Snr6FReGg7k3WofcG1mY3Ze+duxY82eDGc/v3ZQc8x
zldqGGNzlF8mOv6OO/d/NbrjKUwLInNcJ+FPz10dik+7vD78V6w4zpodWgAbnaZC
8aF4LGNykx6h2GcNypAc+WbPgoxNzfCKEtWIlfpwq9Auu8OlvRcknWmhkBABaB8c
rLOZXc17Bdh1MGI3Rjl+p890Z/BOcRMfyEEKfNF9XExV5alpiHm6p2kXZm1yUcaS
WlQChQOe1pcIwHxrUmiB2StzM2cO7hI8rkGuEEgAFPot1NETAxcqVzORPWkPigs7
p5yCQBS4w8VQBOQQelFWvgNO368Ahvakd3zp/AmdfNgGoj2EUrdC/59XzYEzmDO3
2vqAct7VufnUGezgrsSk6FvjAna7z1TX7w/cY+EGusY0VNA+Q8GF7kb4iu2Zx/bT
hpdOkv8b5KL9y+KzRaYpzBO8DcoIFde3EJtgZ4JslxvuS8VnHP5y+G+UM7l7fjUc
oSWDBrjimf0KvB91T3pcJUFKQMBNzpo/hOXqKwc1oLUzP192NQ3p0CPWVnvrCRpB
TceK49AQWCAOwn7XjZtcZcR9+d9vFyQqP5sNgGhgqffhk9u9HwGqyAVknwOCNj2L
cu5fo1VeBuL6vPbR8biHHyqa9TFkNFIScrv6OqqU/rsCAwEAAaNCMEAwHQYDVR0O
BBYEFAEAWnfUrVCdG3uLaLoEnUhSDysUMA8GA1UdEwEB/wQFMAMBAf8wDgYDVR0P
AQH/BAQDAgEGMA0GCSqGSIb3DQEBCwUAA4ICAQAXTSs2NOMBWfI8Z67Wi2//3nQV
AN0XtiHfJ9kAwOfE/1fUfutERObe7HlGXyQ8fSpd39RxtXJf213+56oemGwPAu8b
HhAIAJaOAqyuogfy63WcwYXhI/HRJcWcfbYsCpF3qRVNv1CrpZwPLG4uyteA43fq
Y254WqsI9au3CHSrjDMuvBce3IpwGpZpZBVkaSKHW5nJAD4gn+ShaS0rE+ZXdmPI
lfzzLA2aaLBGPUwcl6ugYCQ9xjYNIOQzZml/z+LjNkmrttD3uv1FKGw8LyN6YGsy
YRZbAmu9T4HxcQw4KrF0Hi3P5GJUYwhL/vOCsFxyd34of+JGEX0F2yOQAAcRqIuq
ReSzAxN5wNQmb9Us8RLk6J0JJh2uqfGd27Q1lwpTUeaADyzO4/zNmO6koAhDaFGR
XlSO2cP4ym8my5C2Q2w/xeLed0J+39q4MQax999GAX1pg4xFhsSP23xtKg6fcwug
4O+tQr1qyf7Am4JRIEBJp501SjpwS3J+dJe5DuQzjvJ/MU1h4oCq11pZRBs5j4cO
z7Tb1j+yBUMX6hrznmuVv7FUv+6ZNKukfCn7iHWpm6tlmlSJ/yENgn7ANHTwTJJn
pyN7UIO2haz2jKJAFx5/29/jE1w3YXVbTCR0rI1JB4L0a/5pL6Sni05rw6GiM6Ew
yKpzwJMW2O4aekxYLw==
-----END CERTIFICATE-----
