Certificate:
    Data:
        Version: 3 (0x2)
        Serial Number:
            4e:b3:be:24:ba:b6:b7:4a:e1:fe:e6:d8:9b:6c:a0:b6:62:7e:b2:49
        Signature Algorithm: sha256WithRSAEncryption
        Issuer: C = BG, O = eDocs Bulgaria EOOD, organizationIdentifier = NTRBG-202970828, OU = QTSP, CN = eDocs Root Qualified CA
        Validity
            Not Before: Sep 25 15:04:50 2024 GMT
            Not After : Sep 25 15:04:50 2034 GMT
        Subject: C = BG, O = eDocs Bulgaria EOOD, organizationIdentifier = NTRBG-202970828, OU = QTSP, CN = eDocs Services Qualified CA
        Subject Public Key Info:
            Public Key Algorithm: rsaEncryption
                Public-Key: (4096 bit)
                Modulus:
                    00:a8:d5:12:1a:f7:a2:1b:5c:15:2c:72:81:c9:e0:
                    d9:cf:18:3b:11:a6:29:eb:84:98:05:28:47:2f:3a:
                    87:91:7d:95:e0:e4:fe:7f:6d:b2:5a:e8:46:e8:ec:
                    82:cc:9a:57:62:68:75:3d:e6:56:00:1f:f8:e8:0c:
                    11:1a:fa:4c:3a:bf:1f:53:8b:47:4d:a7:bd:09:25:
                    85:54:0a:ed:2d:27:57:32:7d:9c:cc:49:b2:6e:64:
                    5d:1f:cd:54:ac:04:ab:ec:a6:33:12:3f:e0:e2:75:
                    ec:3f:05:09:d2:e9:7f:68:93:86:03:23:fb:55:04:
                    95:95:51:f5:52:80:ed:2a:ed:44:0f:38:9a:f9:78:
                    3d:eb:48:90:79:13:83:cd:f2:27:41:82:fa:62:44:
                    8a:66:e8:60:57:70:8a:1e:5f:b7:60:b6:2e:4f:52:
                    d1:b9:3d:00:92:08:50:01:af:73:92:6e:d8:f1:54:
                    d4:6c:22:e5:90:73:61:92:06:46:16:d4:3f:9d:0b:
                    52:e6:9c:a8:01:26:1a:84:dc:86:0b:99:3e:95:47:
                    1a:66:57:cf:31:f7:9b:f1:c2:44:0e:4b:80:20:44:
                    fb:72:c7:8d:0c:11:fd:25:4f:5c:36:a3:95:78:e5:
                    51:89:df:d0:86:4d:19:d7:fd:22:c6:67:7a:31:b9:
                    c0:2d:8b:ce:33:c9:76:53:56:21:be:37:c7:27:17:
                    30:e4:fb:7d:30:68:e2:fb:5c:0e:ca:e3:e3:a2:14:
                    67:77:1f:7e:2b:49:15:0d:f8:fd:31:ad:7f:37:38:
                    99:91:8a:6c:38:8f:f8:98:80:58:64:54:5a:23:72:
                    f3:59:1a:6d:f5:db:34:fb:4e:9a:1b:f1:47:7b:d2:
                    6b:ab:72:ea:d1:e5:9d:3c:ff:88:2d:77:6b:28:b2:
                    af:5b:10:92:63:a9:f0:64:3f:e4:63:08:db:53:db:
                    9a:12:55:8f:a9:c4:3a:31:3b:5a:3c:eb:1f:f8:63:
                    cc:17:b3:c1:11:92:10:5f:ce:97:5d:fe:f6:23:7f:
                    ab:b7:75:ba:15:be:be:eb:f5:3f:3e:a6:aa:19:75:
                    9e:e9:23:39:49:52:73:f8:3f:eb:ab:6c:b4:8c:bb:
                    52:37:31:81:a3:44:4e:a3:fe:b5:aa:6f:18:7a:a9:
                    91:fb:ed:5b:69:6d:15:ee:7c:9d:66:ec:43:03:9d:
                    3b:27:00:d9:dc:d1:29:ca:9e:2f:e4:a4:73:0f:c5:
                    08:c9:95:83:eb:28:e1:25:a9:24:22:4f:90:e6:99:
                    a5:be:c3:77:c2:10:3c:55:c0:88:c9:98:f1:85:03:
                    86:9d:f3:a2:94:a4:b2:ee:82:c2:fa:49:7e:bd:49:
                    38:95:c3
                Exponent: 65537 (0x10001)
        X509v3 extensions:
            X509v3 Subject Key Identifier: 
                01:99:4C:BC:F4:19:D0:D9:B2:A6:4A:0A:E3:03:AE:8C:70:25:A4:4B
            X509v3 Authority Key Identifier: 
                01:00:5A:77:D4:AD:50:9D:1B:7B:8B:68:BA:04:9D:48:52:0F:2B:14
            X509v3 Basic Constraints: critical
                CA:TRUE, pathlen:1
            X509v3 Key Usage: critical
                Certificate Sign, CRL Sign
            Authority Information Access: 
                CA Issuers - URI:http://sign.edocs.bg/ca/certs/edocs-root-qca.der
                OCSP - URI:http://sign.edocs.bg/ca/ocsp/edocs-root-qca
            X509v3 CRL Distribution Points: 
                Full Name:
                  URI:http://sign.edocs.bg/ca/crl/edocs-root-qca
            X509v3 Certificate Policies: 
                Policy: 1.3.6.1.4.1.61227.1.1.6
                  CPS: http://sign.edocs.bg/documents/cps
    Signature Algorithm: sha256WithRSAEncryption
    Signature Value:
        29:f2:f3:0a:15:e1:bc:5f:e8:38:b6:a4:e9:af:0e:5d:27:e8:
        62:d9:a7:fb:0d:e0:ab:1b:0c:7f:86:46:f9:a3:66:dc:4d:59:
        e0:b2:1f:c7:cb:71:c7:b8:e8:17:16:f6:28:27:ab:62:80:fb:
        62:51:c0:ee:38:04:c4:9d:82:bb:ad:e6:a3:61:a8:ab:fb:ef:
        6c:88:00:e3:42:3d:03:d8:d8:22:c2:69:f2:b2:0c:e4:d0:17:
        5a:80:22:d0:fc:7c:16:b8:37:b5:a9:89:25:02:c6:a6:4c:e0:
        f0:fc:e1:c4:34:d5:2c:51:01:6c:cd:63:07:3c:2e:c3:1d:99:
        48:be:e2:1d:c4:28:8c:0d:52:fa:8a:75:08:87:0a:66:4c:2a:
        c8:40:0f:7e:0b:b3:c6:c1:5c:cf:54:e6:4f:a3:61:7d:ff:70:
        c3:c7:66:bc:f4:10:9d:fa:f5:91:70:1e:b8:1a:d7:25:de:59:
        98:4b:e1:46:02:fa:1f:a5:09:63:53:50:73:68:b5:bf:fa:ac:
        28:13:d9:5f:68:3e:d5:c0:84:ef:fd:3a:1b:cb:66:40:67:72:
        66:ec:97:d4:e3:09:e8:87:26:d1:ae:db:c7:11:b8:32:c3:2e:
        c6:57:31:ab:23:9d:1c:6f:0f:62:40:e2:c9:52:68:0c:20:86:
        24:b2:09:f8:13:57:61:45:b0:ae:91:fa:6b:85:ea:8f:9d:74:
        46:b1:19:40:d3:a8:ea:61:3d:1c:4f:2d:b1:21:0b:cf:be:e0:
        93:5a:ca:5c:b3:9d:f2:42:eb:f9:e1:d0:d9:e4:bb:0f:d0:14:
        ba:29:22:67:39:1f:ae:d2:ce:6e:9f:ee:b8:e2:44:51:ee:af:
        50:12:bc:cb:35:a9:74:9e:94:db:75:5a:3d:4d:78:5d:99:1d:
        f7:8c:21:f9:13:43:c8:d7:17:2d:bf:68:77:66:74:67:1a:b0:
        a4:c4:80:6a:f4:c8:26:33:ff:dc:f3:e3:3e:83:2b:4a:e7:1b:
        bd:e8:fb:de:48:3a:9c:93:ba:23:53:a9:3c:a6:b2:92:02:bd:
        0c:94:8e:8d:45:f9:32:8a:6c:cb:fb:b0:f9:c1:b4:e7:b3:eb:
        a1:24:9c:f6:01:c1:93:1e:dd:b0:c2:ec:08:04:86:ef:fd:02:
        49:00:35:d9:8e:f3:fe:79:4b:23:35:11:22:17:51:e0:d2:18:
        82:30:de:b6:95:5e:ee:a5:21:28:57:28:12:49:ff:81:9d:c3:
        18:ca:b6:dc:5a:47:ae:36:65:4f:07:45:c1:1e:77:bb:c4:be:
        5f:9b:21:48:eb:ca:3d:c4:99:d2:2b:bc:70:a2:82:b2:a5:3f:
        76:bb:10:68:47:d5:75:8a
-----BEGIN CERTIFICATE-----
MIIG+TCCBOGgAwIBAgIUTrO+JLq2t0rh/ubYm2ygtmJ+skkwDQYJKoZIhvcNAQEL
BQAwdjELMAkGA1UEBhMCQkcxHDAaBgNVBAoTE2VEb2NzIEJ1bGdhcmlhIEVPT0Qx
GDAWBgNVBGETD05UUkJHLTIwMjk3MDgyODENMAsGA1UECxMEUVRTUDEgMB4GA1UE
AxMXZURvY3MgUm9vdCBRdWFsaWZpZWQgQ0EwHhcNMjQwOTI1MTUwNDUwWhcNMzQw
OTI1MTUwNDUwWjB6MQswCQYDVQQGEwJCRzEcMBoGA1UEChMTZURvY3MgQnVsZ2Fy
aWEgRU9PRDEYMBYGA1UEYRMPTlRSQkctMjAyOTcwODI4MQ0wCwYDVQQLEwRRVFNQ
MSQwIgYDVQQDExtlRG9jcyBTZXJ2aWNlcyBRdWFsaWZpZWQgQ0EwggIiMA0GCSqG
SIb3DQEBAQUAA4ICDwAwggIKAoICAQCo1RIa96IbXBUscoHJ4NnPGDsRpinrhJgF
KEcvOoeRfZXg5P5/bbJa6Ebo7ILMmldiaHU95lYAH/joDBEa+kw6vx9Ti0dNp70J
JYVUCu0tJ1cyfZzMSbJuZF0fzVSsBKvspjMSP+Didew/BQnS6X9ok4YDI/tVBJWV
UfVSgO0q7UQPOJr5eD3rSJB5E4PN8idBgvpiRIpm6GBXcIoeX7dgti5PUtG5PQCS
CFABr3OSbtjxVNRsIuWQc2GSBkYW1D+dC1LmnKgBJhqE3IYLmT6VRxpmV88x95vx
wkQOS4AgRPtyx40MEf0lT1w2o5V45VGJ39CGTRnX/SLGZ3oxucAti84zyXZTViG+
N8cnFzDk+30waOL7XA7K4+OiFGd3H34rSRUN+P0xrX83OJmRimw4j/iYgFhkVFoj
cvNZGm312zT7Tpob8Ud70murcurR5Z08/4gtd2sosq9bEJJjqfBkP+RjCNtT25oS
VY+pxDoxO1o86x/4Y8wXs8ERkhBfzpdd/vYjf6u3dboVvr7r9T8+pqoZdZ7pIzlJ
UnP4P+urbLSMu1I3MYGjRE6j/rWqbxh6qZH77VtpbRXufJ1m7EMDnTsnANnc0SnK
ni/kpHMPxQjJlYPrKOElqSQiT5DmmaW+w3fCEDxVwIjJmPGFA4ad86KUpLLugsL6
SX69STiVwwIDAQABo4IBeTCCAXUwHQYDVR0OBBYEFAGZTLz0GdDZsqZKCuMDroxw
JaRLMB8GA1UdIwQYMBaAFAEAWnfUrVCdG3uLaLoEnUhSDysUMBIGA1UdEwEB/wQI
MAYBAf8CAQEwDgYDVR0PAQH/BAQDAgEGMIGFBggrBgEFBQcBAQR5MHcwPAYIKwYB
BQUHMAKGMGh0dHA6Ly9zaWduLmVkb2NzLmJnL2NhL2NlcnRzL2Vkb2NzLXJvb3Qt
cWNhLmRlcjA3BggrBgEFBQcwAYYraHR0cDovL3NpZ24uZWRvY3MuYmcvY2Evb2Nz
cC9lZG9jcy1yb290LXFjYTA7BgNVHR8ENDAyMDCgLqAshipodHRwOi8vc2lnbi5l
ZG9jcy5iZy9jYS9jcmwvZWRvY3Mtcm9vdC1xY2EwSgYDVR0gBEMwQTA/BgsrBgEE
AYPeKwEBBjAwMC4GCCsGAQUFBwIBFiJodHRwOi8vc2lnbi5lZG9jcy5iZy9kb2N1
bWVudHMvY3BzMA0GCSqGSIb3DQEBCwUAA4ICAQAp8vMKFeG8X+g4tqTprw5dJ+hi
2af7DeCrGwx/hkb5o2bcTVngsh/Hy3HHuOgXFvYoJ6tigPtiUcDuOATEnYK7reaj
Yair++9siADjQj0D2Ngiwmnysgzk0BdagCLQ/HwWuDe1qYklAsamTODw/OHENNUs
UQFszWMHPC7DHZlIvuIdxCiMDVL6inUIhwpmTCrIQA9+C7PGwVzPVOZPo2F9/3DD
x2a89BCd+vWRcB64Gtcl3lmYS+FGAvofpQljU1BzaLW/+qwoE9lfaD7VwITv/Tob
y2ZAZ3Jm7JfU4wnohybRrtvHEbgywy7GVzGrI50cbw9iQOLJUmgMIIYksgn4E1dh
RbCukfprheqPnXRGsRlA06jqYT0cTy2xIQvPvuCTWspcs53yQuv54dDZ5LsP0BS6
KSJnOR+u0s5un+644kRR7q9QErzLNal0npTbdVo9TXhdmR33jCH5E0PI1xctv2h3
ZnRnGrCkxIBq9MgmM//c8+M+gytK5xu96PveSDqck7ojU6k8prKSAr0MlI6NRfky
imzL+7D5wbTns+uhJJz2AcGTHt2wwuwIBIbv/QJJADXZjvP+eUsjNREiF1Hg0hiC
MN62lV7upSEoVygSSf+BncMYyrbcWkeuNmVPB0XBHne7xL5fmyFI68o9xJnSK7xw
ooKypT92uxBoR9V1ig==
-----END CERTIFICATE-----
